target datalayout = "e-m:e-p270:32:32-p271:32:32-p272:64:64-i64:64-i128:128-f80:128-n8:16:32:64-S128"
target triple = "x86_64-pc-linux-gnu"

%"class.ozz::io::Stream" = type { ptr }
%"class.ozz::io::MemoryStream" = type { %"class.ozz::io::Stream", ptr, i64, i32, i32 }

; Function Attrs: alwaysinline mustprogress nounwind uwtable
define linkonce_odr dso_local noundef i64 @_ZN3ozz5AlignImEET_S1_m(i64 noundef %0, i64 noundef %1) #7 comdat {
  %3 = alloca i64, align 8
  %4 = alloca i64, align 8
  store i64 %0, ptr %3, align 8, !tbaa !21
  store i64 %1, ptr %4, align 8, !tbaa !21
  %5 = load i64, ptr %3, align 8, !tbaa !21
  %6 = load i64, ptr %4, align 8, !tbaa !21
  %7 = sub i64 %6, 1
  %8 = add i64 %5, %7
  %9 = load i64, ptr %4, align 8, !tbaa !21
  %10 = sub i64 0, %9
  %11 = and i64 %8, %10
  ret i64 %11
}

; Function Attrs: mustprogress uwtable
define dso_local noundef zeroext i1 @_ZN3ozz2io12MemoryStream6ResizeEm(ptr noundef nonnull align 8 dereferenceable(32) %0, i64 noundef %1) #0 align 2 {
  %3 = alloca ptr, align 8
  %4 = alloca i64, align 8
  %5 = alloca i64, align 8
  %6 = alloca ptr, align 8
  store ptr %0, ptr %3, align 8, !tbaa !27
  store i64 %1, ptr %4, align 8, !tbaa !21
  %7 = load ptr, ptr %3, align 8
  %8 = load i64, ptr %4, align 8, !tbaa !21
  %9 = getelementptr inbounds nuw %"class.ozz::io::MemoryStream", ptr %7, i32 0, i32 2
  %10 = load i64, ptr %9, align 8, !tbaa !31
  %11 = icmp ugt i64 %8, %10
  br i1 %11, label %12, label %41

12:                                               ; preds = %2
  call void @llvm.lifetime.start.p0(i64 8, ptr %5) #10
  %13 = load i64, ptr %4, align 8, !tbaa !21
  %14 = call noundef i64 @_ZN3ozz5AlignImEET_S1_m(i64 noundef %13, i64 noundef 16384)
  store i64 %14, ptr %5, align 8, !tbaa !21
  call void @llvm.lifetime.start.p0(i64 8, ptr %6) #10
  %15 = call noundef ptr @_ZN3ozz6memory17default_allocatorEv()
  %16 = load i64, ptr %5, align 8, !tbaa !21
  %17 = load ptr, ptr %15, align 8, !tbaa !13
  %18 = getelementptr inbounds ptr, ptr %17, i64 2
  %19 = load ptr, ptr %18, align 8
  %20 = call noundef ptr %19(ptr noundef nonnull align 8 dereferenceable(8) %15, i64 noundef %16, i64 noundef 16)
  store ptr %20, ptr %6, align 8, !tbaa !4
  %21 = getelementptr inbounds nuw %"class.ozz::io::MemoryStream", ptr %7, i32 0, i32 1
  %22 = load ptr, ptr %21, align 8, !tbaa !29
  %23 = icmp ne ptr %22, null
  br i1 %23, label %24, label %30

24:                                               ; preds = %12
  %25 = load ptr, ptr %6, align 8, !tbaa !4
  %26 = getelementptr inbounds nuw %"class.ozz::io::MemoryStream", ptr %7, i32 0, i32 1
  %27 = load ptr, ptr %26, align 8, !tbaa !29
  %28 = getelementptr inbounds nuw %"class.ozz::io::MemoryStream", ptr %7, i32 0, i32 2
  %29 = load i64, ptr %28, align 8, !tbaa !31
  call void @llvm.memcpy.p0.p0.i64(ptr align 1 %25, ptr align 1 %27, i64 %29, i1 false)
  br label %30

30:                                               ; preds = %24, %12
  %31 = call noundef ptr @_ZN3ozz6memory17default_allocatorEv()
  %32 = getelementptr inbounds nuw %"class.ozz::io::MemoryStream", ptr %7, i32 0, i32 1
  %33 = load ptr, ptr %32, align 8, !tbaa !29
  %34 = load ptr, ptr %31, align 8, !tbaa !13
  %35 = getelementptr inbounds ptr, ptr %34, i64 3
  %36 = load ptr, ptr %35, align 8
  call void %36(ptr noundef nonnull align 8 dereferenceable(8) %31, ptr noundef %33)
  %37 = load ptr, ptr %6, align 8, !tbaa !4
  %38 = getelementptr inbounds nuw %"class.ozz::io::MemoryStream", ptr %7, i32 0, i32 1
  store ptr %37, ptr %38, align 8, !tbaa !29
  %39 = load i64, ptr %5, align 8, !tbaa !21
  %40 = getelementptr inbounds nuw %"class.ozz::io::MemoryStream", ptr %7, i32 0, i32 2
  store i64 %39, ptr %40, align 8, !tbaa !31
  call void @llvm.lifetime.end.p0(i64 8, ptr %6) #10
  call void @llvm.lifetime.end.p0(i64 8, ptr %5) #10
  br label %41

41:                                               ; preds = %30, %2
  %42 = load i64, ptr %4, align 8, !tbaa !21
  %43 = icmp eq i64 %42, 0
  br i1 %43, label %48, label %44

44:                                               ; preds = %41
  %45 = getelementptr inbounds nuw %"class.ozz::io::MemoryStream", ptr %7, i32 0, i32 1
  %46 = load ptr, ptr %45, align 8, !tbaa !29
  %47 = icmp ne ptr %46, null
  br label %48

48:                                               ; preds = %44, %41
  %49 = phi i1 [ true, %41 ], [ %47, %44 ]
  ret i1 %49
}