; Function Attrs: mustprogress uwtable
define dso_local noundef zeroext i1 @_ZN3ozz2io12MemoryStream6ResizeEm(ptr noundef nonnull align 8 captures(none) dereferenceable(32) %0, i64 noundef %1) local_unnamed_addr #12 align 2 {
  %3 = getelementptr inbounds nuw i8, ptr %0, i64 16
  %4 = load i64, ptr %3, align 8, !tbaa !20
  %5 = icmp ugt i64 %1, %4
  br i1 %5, label %6, label %._crit_edge

._crit_edge:                                      ; preds = %2
  %.phi.trans.insert = getelementptr inbounds nuw i8, ptr %0, i64 8
  %.pre = load ptr, ptr %.phi.trans.insert, align 8
  br label %24

6:                                                ; preds = %2
  %7 = add i64 %1, 16383
  %8 = and i64 %7, -16384
  %9 = tail call noundef ptr @_ZN3ozz6memory17default_allocatorEv()
  %10 = load ptr, ptr %9, align 8, !tbaa !4
  %11 = getelementptr inbounds nuw i8, ptr %10, i64 16
  %12 = load ptr, ptr %11, align 8
  %13 = tail call noundef ptr %12(ptr noundef nonnull align 8 dereferenceable(8) %9, i64 noundef %8, i64 noundef 16)
  %14 = getelementptr inbounds nuw i8, ptr %0, i64 8
  %15 = load ptr, ptr %14, align 8, !tbaa !14
  %.not = icmp eq ptr %15, null
  br i1 %.not, label %18, label %16

16:                                               ; preds = %6
  %17 = load i64, ptr %3, align 8, !tbaa !20
  tail call void @llvm.memcpy.p0.p0.i64(ptr align 1 %13, ptr nonnull align 1 %15, i64 %17, i1 false)
  br label %18

18:                                               ; preds = %16, %6
  %19 = tail call noundef ptr @_ZN3ozz6memory17default_allocatorEv()
  %20 = load ptr, ptr %14, align 8, !tbaa !14
  %21 = load ptr, ptr %19, align 8, !tbaa !4
  %22 = getelementptr inbounds nuw i8, ptr %21, i64 24
  %23 = load ptr, ptr %22, align 8
  tail call void %23(ptr noundef nonnull align 8 dereferenceable(8) %19, ptr noundef %20)
  store ptr %13, ptr %14, align 8, !tbaa !14
  store i64 %8, ptr %3, align 8, !tbaa !20
  br label %24

24:                                               ; preds = %._crit_edge, %18
  %25 = phi ptr [ %.pre, %._crit_edge ], [ %13, %18 ]
  %26 = icmp eq i64 %1, 0
  %27 = icmp ne ptr %25, null
  %28 = select i1 %26, i1 true, i1 %27
  ret i1 %28
}